; Function Attrs: nofree norecurse nosync nounwind sspstrong memory(argmem: read) uwtable
define dso_local i64 @iov_size(ptr noundef readonly captures(none) %iov, i32 noundef %iov_cnt) local_unnamed_addr #4 {
entry:
  %cmp4.not = icmp eq i32 %iov_cnt, 0
  br i1 %cmp4.not, label %for.end, label %for.body.preheader

for.body.preheader:                               ; preds = %entry
  %wide.trip.count = zext i32 %iov_cnt to i64
  br label %for.body

for.body:                                         ; preds = %for.body.preheader, %for.body
  %indvars.iv = phi i64 [ 0, %for.body.preheader ], [ %indvars.iv.next, %for.body ]
  %len.05 = phi i64 [ 0, %for.body.preheader ], [ %add, %for.body ]
  %iov_len = getelementptr %struct.iovec, ptr %iov, i64 %indvars.iv, i32 1
  %0 = load i64, ptr %iov_len, align 8
  %add = add i64 %0, %len.05
  %indvars.iv.next = add nuw nsw i64 %indvars.iv, 1
  %exitcond.not = icmp eq i64 %indvars.iv.next, %wide.trip.count
  br i1 %exitcond.not, label %for.end, label %for.body, !llvm.loop !9

for.end:                                          ; preds = %for.body, %entry
  %len.0.lcssa = phi i64 [ 0, %entry ], [ %add, %for.body ]
  ret i64 %len.0.lcssa
}